; Function Attrs: mustprogress uwtable
define noundef zeroext i1 @_ZN2cv8saliency25StaticSaliencyFineGrained19computeSaliencyImplERKNS_11_InputArrayERKNS_12_OutputArrayE(ptr noundef nonnull readnone align 8 captures(none) dereferenceable(8) %0, ptr noundef nonnull align 8 dereferenceable(24) %1, ptr noundef nonnull align 8 dereferenceable(24) %2) unnamed_addr #3 align 2 personality ptr @__gxx_personality_v0 {
  %4 = alloca %"class.cv::Mat", align 8
  %5 = alloca %"class.cv::Mat", align 8
  %6 = alloca %"class.cv::Mat", align 8
  %7 = alloca %"class.cv::Mat", align 8
  %8 = alloca %"class.cv::Mat", align 8
  call void @llvm.lifetime.start.p0(i64 96, ptr nonnull %4) #16
  call void @llvm.lifetime.start.p0(i64 96, ptr nonnull %5) #16
  %9 = tail call noundef i32 @_ZNK2cv11_InputArray4kindEv(ptr noundef nonnull align 8 dereferenceable(24) %1), !noalias !15
  %10 = icmp eq i32 %9, 65536
  br i1 %10, label %11, label %14

11:                                               ; preds = %3
  %12 = getelementptr inbounds nuw i8, ptr %1, i64 8
  %13 = load ptr, ptr %12, align 8, !tbaa !18, !noalias !15
  call void @_ZN2cv3MatC1ERKS0_(ptr noundef nonnull align 8 dereferenceable(96) %5, ptr noundef nonnull align 8 dereferenceable(96) %13)
  br label %_ZNK2cv11_InputArray6getMatEi.exit

14:                                               ; preds = %3
  call void @_ZNK2cv11_InputArray7getMat_Ei(ptr dead_on_unwind nonnull writable sret(%"class.cv::Mat") align 8 %5, ptr noundef nonnull align 8 dereferenceable(24) %1, i32 noundef -1)
  br label %_ZNK2cv11_InputArray6getMatEi.exit

_ZNK2cv11_InputArray6getMatEi.exit:               ; preds = %11, %14
  %15 = getelementptr inbounds nuw i8, ptr %5, i64 12
  %16 = load i32, ptr %15, align 4, !tbaa !22
  call void @llvm.lifetime.start.p0(i64 96, ptr nonnull %6) #16
  %17 = invoke noundef i32 @_ZNK2cv11_InputArray4kindEv(ptr noundef nonnull align 8 dereferenceable(24) %1)
          to label %.noexc unwind label %35

.noexc:                                           ; preds = %_ZNK2cv11_InputArray6getMatEi.exit
  %18 = icmp eq i32 %17, 65536
  br i1 %18, label %19, label %22

19:                                               ; preds = %.noexc
  %20 = getelementptr inbounds nuw i8, ptr %1, i64 8
  %21 = load ptr, ptr %20, align 8, !tbaa !18, !noalias !30
  invoke void @_ZN2cv3MatC1ERKS0_(ptr noundef nonnull align 8 dereferenceable(96) %6, ptr noundef nonnull align 8 dereferenceable(96) %21)
          to label %_ZNK2cv11_InputArray6getMatEi.exit18 unwind label %35

22:                                               ; preds = %.noexc
  invoke void @_ZNK2cv11_InputArray7getMat_Ei(ptr dead_on_unwind nonnull writable sret(%"class.cv::Mat") align 8 %6, ptr noundef nonnull align 8 dereferenceable(24) %1, i32 noundef -1)
          to label %_ZNK2cv11_InputArray6getMatEi.exit18 unwind label %35

_ZNK2cv11_InputArray6getMatEi.exit18:             ; preds = %19, %22
  %23 = getelementptr inbounds nuw i8, ptr %6, i64 8
  %24 = load i32, ptr %23, align 8, !tbaa !33
  %.sroa.2.0.insert.ext = zext i32 %24 to i64
  %.sroa.2.0.insert.shift = shl nuw i64 %.sroa.2.0.insert.ext, 32
  %.sroa.0.0.insert.ext = zext i32 %16 to i64
  %.sroa.0.0.insert.insert = or disjoint i64 %.sroa.2.0.insert.shift, %.sroa.0.0.insert.ext
  invoke void @_ZN2cv3MatC1ENS_5Size_IiEEi(ptr noundef nonnull align 8 dereferenceable(96) %4, i64 %.sroa.0.0.insert.insert, i32 noundef 0)
          to label %25 unwind label %37

25:                                               ; preds = %_ZNK2cv11_InputArray6getMatEi.exit18
  call void @_ZN2cv3MatD1Ev(ptr noundef nonnull align 8 dereferenceable(96) %6) #16
  call void @llvm.lifetime.end.p0(i64 96, ptr nonnull %6) #16
  call void @_ZN2cv3MatD1Ev(ptr noundef nonnull align 8 dereferenceable(96) %5) #16
  call void @llvm.lifetime.end.p0(i64 96, ptr nonnull %5) #16
  %26 = invoke noundef i32 @_ZNK2cv11_InputArray4kindEv(ptr noundef nonnull align 8 dereferenceable(24) %1)
          to label %.noexc19 unwind label %40

.noexc19:                                         ; preds = %25
  %27 = icmp eq i32 %26, 65536
  br i1 %27, label %28, label %31

28:                                               ; preds = %.noexc19
  %29 = getelementptr inbounds nuw i8, ptr %1, i64 8
  %30 = load ptr, ptr %29, align 8, !tbaa !18, !noalias !34
  invoke void @_ZN2cv3MatC1ERKS0_(ptr noundef nonnull align 8 dereferenceable(96) %7, ptr noundef nonnull align 8 dereferenceable(96) %30)
          to label %_ZNK2cv11_InputArray6getMatEi.exit22 unwind label %40

31:                                               ; preds = %.noexc19
  invoke void @_ZNK2cv11_InputArray7getMat_Ei(ptr dead_on_unwind nonnull writable sret(%"class.cv::Mat") align 8 %7, ptr noundef nonnull align 8 dereferenceable(24) %1, i32 noundef -1)
          to label %_ZNK2cv11_InputArray6getMatEi.exit22 unwind label %40

_ZNK2cv11_InputArray6getMatEi.exit22:             ; preds = %28, %31
  invoke void @_ZN2cv3MatC1ERKS0_(ptr noundef nonnull align 8 dereferenceable(96) %8, ptr noundef nonnull align 8 dereferenceable(96) %4)
          to label %32 unwind label %42

32:                                               ; preds = %_ZNK2cv11_InputArray6getMatEi.exit22
  invoke void @_ZN2cv8saliency25StaticSaliencyFineGrained20calcIntensityChannelENS_3MatES2_(ptr noundef nonnull align 8 dereferenceable(8) %0, ptr noundef nonnull %7, ptr noundef nonnull %8)
          to label %33 unwind label %44

33:                                               ; preds = %32
  call void @_ZN2cv3MatD1Ev(ptr noundef nonnull align 8 dereferenceable(96) %8) #16
  call void @_ZN2cv3MatD1Ev(ptr noundef nonnull align 8 dereferenceable(96) %7) #16
  invoke void @_ZNK2cv3Mat9convertToERKNS_12_OutputArrayEidd(ptr noundef nonnull align 8 dereferenceable(96) %4, ptr noundef nonnull align 8 dereferenceable(24) %2, i32 noundef 5, double noundef 0x3F70101020000000, double noundef 0.000000e+00)
          to label %34 unwind label %40

34:                                               ; preds = %33
  call void @_ZN2cv3MatD1Ev(ptr noundef nonnull align 8 dereferenceable(96) %4) #16
  call void @llvm.lifetime.end.p0(i64 96, ptr nonnull %4) #16
  ret i1 true

35:                                               ; preds = %22, %19, %_ZNK2cv11_InputArray6getMatEi.exit
  %36 = landingpad { ptr, i32 }
          cleanup
  br label %39

37:                                               ; preds = %_ZNK2cv11_InputArray6getMatEi.exit18
  %38 = landingpad { ptr, i32 }
          cleanup
  call void @_ZN2cv3MatD1Ev(ptr noundef nonnull align 8 dereferenceable(96) %6) #16
  br label %39

39:                                               ; preds = %37, %35
  %.pn = phi { ptr, i32 } [ %38, %37 ], [ %36, %35 ]
  call void @llvm.lifetime.end.p0(i64 96, ptr nonnull %6) #16
  call void @_ZN2cv3MatD1Ev(ptr noundef nonnull align 8 dereferenceable(96) %5) #16
  call void @llvm.lifetime.end.p0(i64 96, ptr nonnull %5) #16
  br label %48

40:                                               ; preds = %31, %28, %25, %33
  %41 = landingpad { ptr, i32 }
          cleanup
  br label %47

42:                                               ; preds = %_ZNK2cv11_InputArray6getMatEi.exit22
  %43 = landingpad { ptr, i32 }
          cleanup
  br label %46

44:                                               ; preds = %32
  %45 = landingpad { ptr, i32 }
          cleanup
  call void @_ZN2cv3MatD1Ev(ptr noundef nonnull align 8 dereferenceable(96) %8) #16
  br label %46

46:                                               ; preds = %44, %42
  %.pn11 = phi { ptr, i32 } [ %45, %44 ], [ %43, %42 ]
  call void @_ZN2cv3MatD1Ev(ptr noundef nonnull align 8 dereferenceable(96) %7) #16
  br label %47

47:                                               ; preds = %46, %40
  %.pn13 = phi { ptr, i32 } [ %41, %40 ], [ %.pn11, %46 ]
  call void @_ZN2cv3MatD1Ev(ptr noundef nonnull align 8 dereferenceable(96) %4) #16
  br label %48

48:                                               ; preds = %47, %39
  %.pn13.pn = phi { ptr, i32 } [ %.pn13, %47 ], [ %.pn, %39 ]
  call void @llvm.lifetime.end.p0(i64 96, ptr nonnull %4) #16
  resume { ptr, i32 } %.pn13.pn
}